target datalayout = "e-m:e-p270:32:32-p271:32:32-p272:64:64-i64:64-i128:128-f80:128-n8:16:32:64-S128"
target triple = "x86_64-pc-linux-gnu"

%class.Phase = type { i32, ptr }
%class.Compile = type <{ %class.Phase, i32, %class.Options, [4 x i8], ptr, i32, [4 x i8], ptr, ptr, ptr, ptr, ptr, i32, i32, i32, [4 x i8], i64, i8, i8, [2 x i8], i32, i8, i8, i8, i8, i8, i8, i8, i8, i8, [3 x i8], i32, i8, [3 x i8], [30 x i32], i8, [3 x i8], i32, i8, i8, i8, i8, i8, i8, i8, i8, i8, i8, i8, i8, i8, [3 x i8], i32, i32, [4 x i8], %class.Arena, ptr, ptr, ptr, ptr, %class.CHeapStringHolder, ptr, %class.GrowableArray, %class.GrowableArray.0, %class.GrowableArray.3, %class.GrowableArray.0, %class.GrowableArray.0, %class.GrowableArray.0, %class.GrowableArray.6, %class.GrowableArray.9, ptr, i32, i32, %class.VectorSet, %class.Arena, %class.Arena, ptr, ptr, ptr, ptr, ptr, ptr, ptr, ptr, ptr, %class.Arena, ptr, ptr, %class.CloneMap, i64, ptr, ptr, ptr, i32, i32, [64 x %"struct.Compile::AliasCacheEntry"], ptr, ptr, ptr, ptr, %class.GrowableArray, %class.GrowableArray, %class.GrowableArray, %class.GrowableArray, i32, i32, i8, [7 x i8], ptr, ptr, i32, [4 x i8], ptr, ptr, ptr, i32, i32, ptr, ptr, %class.RegMask, ptr, ptr, i32, [4 x i8], ptr, %class.TimeInstant, i32, [4 x i8] }>
%class.Options = type { i8, i8, i8, i8, i8, i8, i8, i8 }
%class.CHeapStringHolder = type { ptr }
%class.GrowableArray.3 = type { %class.GrowableArrayWithAllocator.4, %class.GrowableArrayMetadata }
%class.GrowableArrayWithAllocator.4 = type { %class.GrowableArrayView.5 }
%class.GrowableArrayView.5 = type { %class.GrowableArrayBase, ptr }
%class.GrowableArrayBase = type { i32, i32 }
%class.GrowableArrayMetadata = type { i64 }
%class.GrowableArray.0 = type { %class.GrowableArrayWithAllocator.1, %class.GrowableArrayMetadata }
%class.GrowableArrayWithAllocator.1 = type { %class.GrowableArrayView.2 }
%class.GrowableArrayView.2 = type { %class.GrowableArrayBase, ptr }
%class.GrowableArray.6 = type { %class.GrowableArrayWithAllocator.7, %class.GrowableArrayMetadata }
%class.GrowableArrayWithAllocator.7 = type { %class.GrowableArrayView.8 }
%class.GrowableArrayView.8 = type { %class.GrowableArrayBase, ptr }
%class.GrowableArray.9 = type { %class.GrowableArrayWithAllocator.10, %class.GrowableArrayMetadata }
%class.GrowableArrayWithAllocator.10 = type { %class.GrowableArrayView.11 }
%class.GrowableArrayView.11 = type { %class.GrowableArrayBase, ptr }
%class.VectorSet = type { i32, ptr, i32, ptr }
%class.Arena = type { i8, i8, i64, ptr, ptr, ptr, ptr }
%class.CloneMap = type <{ i8, [7 x i8], ptr, i32, [4 x i8] }>
%"struct.Compile::AliasCacheEntry" = type { ptr, i32 }
%class.GrowableArray = type { %class.GrowableArrayWithAllocator, %class.GrowableArrayMetadata }
%class.GrowableArrayWithAllocator = type { %class.GrowableArrayView }
%class.GrowableArrayView = type { %class.GrowableArrayBase, ptr }
%class.RegMask = type { %union.anon, i32, i32 }
%union.anon = type { [11 x i64] }
%class.TimeInstant = type { %class.CompositeCounterRepresentation }
%class.CompositeCounterRepresentation = type { %class.Representation }
%class.Representation = type { %class.PairRep }
%class.PairRep = type { i64, i64 }

@AggressiveUnboxing = external global i8, align 1

; Function Attrs: mustprogress nounwind uwtable
define linkonce_odr hidden noundef zeroext i1 @_ZNK7Compile19aggressive_unboxingEv(ptr noundef nonnull align 8 dereferenceable(2316) %0) #1 comdat align 2 {
  %2 = alloca ptr, align 8
  store ptr %0, ptr %2, align 8
  %3 = load ptr, ptr %2, align 8
  %4 = getelementptr inbounds %class.Compile, ptr %3, i32 0, i32 2
  %5 = getelementptr inbounds %class.Options, ptr %4, i32 0, i32 4
  %6 = load i8, ptr %5, align 4
  %7 = trunc i8 %6 to i1
  br i1 %7, label %8, label %11

8:                                                ; preds = %1
  %9 = load i8, ptr @AggressiveUnboxing, align 1
  %10 = trunc i8 %9 to i1
  br label %11

11:                                               ; preds = %8, %1
  %12 = phi i1 [ false, %1 ], [ %10, %8 ]
  ret i1 %12
}

; Function Attrs: mustprogress nounwind uwtable
define linkonce_odr hidden void @_ZN7Compile19set_has_boxed_valueEb(ptr noundef nonnull align 8 dereferenceable(2316) %0, i1 noundef zeroext %1) #1 comdat align 2 {
  %3 = alloca ptr, align 8
  %4 = alloca i8, align 1
  store ptr %0, ptr %3, align 8
  %5 = zext i1 %1 to i8
  store i8 %5, ptr %4, align 1
  %6 = load ptr, ptr %3, align 8
  %7 = load i8, ptr %4, align 1
  %8 = trunc i8 %7 to i1
  %9 = getelementptr inbounds %class.Compile, ptr %6, i32 0, i32 28
  %10 = zext i1 %8 to i8
  store i8 %10, ptr %9, align 1
  ret void
}

; Function Attrs: mustprogress nounwind uwtable
define linkonce_odr hidden noundef zeroext i1 @_ZNK7Compile16eliminate_boxingEv(ptr noundef nonnull align 8 dereferenceable(2316) %0) #1 comdat align 2 {
  %2 = alloca ptr, align 8
  store ptr %0, ptr %2, align 8
  %3 = load ptr, ptr %2, align 8
  %4 = getelementptr inbounds %class.Compile, ptr %3, i32 0, i32 2
  %5 = getelementptr inbounds %class.Options, ptr %4, i32 0, i32 4
  %6 = load i8, ptr %5, align 4
  %7 = trunc i8 %6 to i1
  ret i1 %7
}

; Function Attrs: mustprogress nounwind uwtable
define hidden noundef zeroext i1 @_ZN7Compile28should_delay_boxing_inliningEP8ciMethodP8JVMState(ptr noundef nonnull align 8 dereferenceable(2316) %0, ptr noundef %1, ptr noundef %2) #1 align 2 {
  %4 = alloca i1, align 1
  %5 = alloca ptr, align 8
  %6 = alloca ptr, align 8
  %7 = alloca ptr, align 8
  store ptr %0, ptr %5, align 8
  store ptr %1, ptr %6, align 8
  store ptr %2, ptr %7, align 8
  %8 = load ptr, ptr %5, align 8
  %9 = call noundef zeroext i1 @_ZNK7Compile16eliminate_boxingEv(ptr noundef nonnull align 8 dereferenceable(2316) %8)
  br i1 %9, label %10, label %15

10:                                               ; preds = %3
  %11 = load ptr, ptr %6, align 8
  %12 = call noundef zeroext i1 @_ZNK8ciMethod16is_boxing_methodEv(ptr noundef nonnull align 8 dereferenceable(160) %11)
  br i1 %12, label %13, label %15

13:                                               ; preds = %10
  call void @_ZN7Compile19set_has_boxed_valueEb(ptr noundef nonnull align 8 dereferenceable(2316) %8, i1 noundef zeroext true)
  %14 = call noundef zeroext i1 @_ZNK7Compile19aggressive_unboxingEv(ptr noundef nonnull align 8 dereferenceable(2316) %8)
  store i1 %14, ptr %4, align 1
  br label %16

15:                                               ; preds = %10, %3
  store i1 false, ptr %4, align 1
  br label %16

16:                                               ; preds = %15, %13
  %17 = load i1, ptr %4, align 1
  ret i1 %17
}