; Function Attrs: mustprogress nounwind uwtable
define hidden noundef zeroext i1 @_ZN7Compile28should_delay_boxing_inliningEP8ciMethodP8JVMState(ptr nocapture noundef nonnull align 8 dereferenceable(2316) %0, ptr noundef %1, ptr nocapture noundef readnone %2) local_unnamed_addr #0 align 2 {
  %4 = getelementptr inbounds i8, ptr %0, i64 24
  %5 = load i8, ptr %4, align 8
  %6 = trunc i8 %5 to i1
  br i1 %6, label %7, label %16

7:                                                ; preds = %3
  %8 = tail call noundef zeroext i1 @_ZNK8ciMethod16is_boxing_methodEv(ptr noundef nonnull align 8 dereferenceable(160) %1) #10
  br i1 %8, label %9, label %16

9:                                                ; preds = %7
  %10 = getelementptr inbounds i8, ptr %0, i64 127
  store i8 1, ptr %10, align 1
  %11 = load i8, ptr %4, align 8
  %12 = trunc i8 %11 to i1
  %13 = load i8, ptr @AggressiveUnboxing, align 1
  %14 = trunc i8 %13 to i1
  %15 = select i1 %12, i1 %14, i1 false
  br label %16

16:                                               ; preds = %3, %7, %9
  %.0 = phi i1 [ %15, %9 ], [ false, %7 ], [ false, %3 ]
  ret i1 %.0
}